target datalayout = "e-m:e-p270:32:32-p271:32:32-p272:64:64-i64:64-i128:128-f80:128-n8:16:32:64-S128"
target triple = "x86_64-pc-linux-gnu"

; Function Attrs: nounwind uwtable
define i32 @Pa_GetSampleSize(i64 noundef %0) #0 {
  %2 = alloca i64, align 8
  %3 = alloca i32, align 4
  store i64 %0, ptr %2, align 8
  %4 = load i64, ptr %2, align 8
  %5 = and i64 %4, -2147483649
  switch i64 %5, label %10 [
    i64 32, label %6
    i64 16, label %6
    i64 8, label %7
    i64 4, label %8
    i64 1, label %9
    i64 2, label %9
  ]

6:                                                ; preds = %1, %1
  store i32 1, ptr %3, align 4
  br label %11

7:                                                ; preds = %1
  store i32 2, ptr %3, align 4
  br label %11

8:                                                ; preds = %1
  store i32 3, ptr %3, align 4
  br label %11

9:                                                ; preds = %1, %1
  store i32 4, ptr %3, align 4
  br label %11

10:                                               ; preds = %1
  store i32 -9994, ptr %3, align 4
  br label %11

11:                                               ; preds = %10, %9, %8, %7, %6
  %12 = load i32, ptr %3, align 4
  ret i32 %12
}