; Function Attrs: mustprogress nofree norecurse nosync nounwind willreturn memory(none) uwtable
define range(i32 -9994, 5) i32 @Pa_GetSampleSize(i64 noundef %0) local_unnamed_addr #0 {
  %2 = and i64 %0, -2147483649
  switch i64 %2, label %6 [
    i64 32, label %7
    i64 16, label %7
    i64 8, label %3
    i64 4, label %4
    i64 1, label %5
    i64 2, label %5
  ]

3:                                                ; preds = %1
  br label %7

4:                                                ; preds = %1
  br label %7

5:                                                ; preds = %1, %1
  br label %7

6:                                                ; preds = %1
  br label %7

7:                                                ; preds = %1, %1, %6, %5, %4, %3
  %.0 = phi i32 [ -9994, %6 ], [ 4, %5 ], [ 3, %4 ], [ 2, %3 ], [ 1, %1 ], [ 1, %1 ]
  ret i32 %.0
}